; Function Attrs: mustprogress nofree norecurse nosync nounwind willreturn memory(read, inaccessiblemem: none) uwtable
define noundef ptr @_ZNK19OpenColorIO_v2_5dev10ColorSpace8getAliasEm(ptr noundef nonnull readonly align 8 captures(none) dereferenceable(8) %0, i64 noundef %1) local_unnamed_addr #4 align 2 personality ptr @__gxx_personality_v0 {
  %3 = load ptr, ptr %0, align 8, !tbaa !52
  %4 = getelementptr inbounds nuw i8, ptr %3, i64 160
  %5 = getelementptr inbounds nuw i8, ptr %3, i64 168
  %6 = load ptr, ptr %5, align 8, !tbaa !56
  %7 = load ptr, ptr %4, align 8, !tbaa !55
  %8 = ptrtoint ptr %6 to i64
  %9 = ptrtoint ptr %7 to i64
  %10 = sub i64 %8, %9
  %11 = ashr exact i64 %10, 5
  %12 = icmp ult i64 %1, %11
  br i1 %12, label %13, label %16

13:                                               ; preds = %2
  %14 = getelementptr inbounds nuw %"class.std::__cxx11::basic_string", ptr %7, i64 %1
  %15 = load ptr, ptr %14, align 8, !tbaa !57
  br label %16

16:                                               ; preds = %2, %13
  %.0 = phi ptr [ %15, %13 ], [ @.str, %2 ]
  ret ptr %.0
}